; Function Attrs: nounwind uwtable
define range(i32 -173, 1) i32 @wolfSSL_key_update_response(ptr noundef readonly captures(address_is_null) %0, ptr noundef writeonly captures(address_is_null) %1) local_unnamed_addr #0 {
  %3 = icmp eq ptr %1, null
  %4 = icmp eq ptr %0, null
  %or.cond = or i1 %4, %3
  br i1 %or.cond, label %13, label %5

5:                                                ; preds = %2
  %6 = getelementptr inbounds nuw i8, ptr %0, i64 710
  %7 = load i16, ptr %6, align 2
  %8 = tail call i32 @IsAtLeastTLSv1_3(i16 %7) #11
  %.not = icmp eq i32 %8, 0
  br i1 %.not, label %13, label %9

9:                                                ; preds = %5
  %10 = getelementptr inbounds nuw i8, ptr %0, i64 1014
  %11 = load i8, ptr %10, align 2, !tbaa !125
  %12 = zext i8 %11 to i32
  store i32 %12, ptr %1, align 4, !tbaa !109
  br label %13

13:                                               ; preds = %2, %5, %9
  %.0 = phi i32 [ 0, %9 ], [ -173, %5 ], [ -173, %2 ]
  ret i32 %.0
}